target datalayout = "e-m:e-p270:32:32-p271:32:32-p272:64:64-i64:64-i128:128-f80:128-n8:16:32:64-S128"
target triple = "x86_64-pc-linux-gnu"

%"struct.clang::TargetInfo::ConstraintInfo" = type { i32, i32, %struct.anon, %"class.llvm::SmallSet", %"class.std::__cxx11::basic_string", %"class.std::__cxx11::basic_string" }
%struct.anon = type { i32, i32, i8 }
%"class.llvm::SmallSet" = type { %"class.llvm::SmallVector", %"class.std::set" }
%"class.llvm::SmallVector" = type { %"class.llvm::SmallVectorImpl", %"struct.llvm::SmallVectorStorage" }
%"class.llvm::SmallVectorImpl" = type { %"class.llvm::SmallVectorTemplateBase" }
%"class.llvm::SmallVectorTemplateBase" = type { %"class.llvm::SmallVectorTemplateCommon" }
%"class.llvm::SmallVectorTemplateCommon" = type { %"class.llvm::SmallVectorBase" }
%"class.llvm::SmallVectorBase" = type { ptr, i32, i32 }
%"struct.llvm::SmallVectorStorage" = type { [16 x i8] }
%"class.std::set" = type { %"class.std::_Rb_tree" }
%"class.std::_Rb_tree" = type { %"struct.std::_Rb_tree<int, int, std::_Identity<int>, std::less<int>>::_Rb_tree_impl" }
%"struct.std::_Rb_tree<int, int, std::_Identity<int>, std::less<int>>::_Rb_tree_impl" = type { [8 x i8], %"struct.std::_Rb_tree_header" }
%"struct.std::_Rb_tree_header" = type { %"struct.std::_Rb_tree_node_base", i64 }
%"struct.std::_Rb_tree_node_base" = type { i32, ptr, ptr, ptr }
%"class.std::__cxx11::basic_string" = type { %"struct.std::__cxx11::basic_string<char>::_Alloc_hider", i64, %union.anon }
%"struct.std::__cxx11::basic_string<char>::_Alloc_hider" = type { ptr }
%union.anon = type { i64, [8 x i8] }

; Function Attrs: mustprogress nounwind uwtable
define linkonce_odr hidden void @_ZN5clang10TargetInfo14ConstraintInfo15setAllowsMemoryEv(ptr noundef nonnull align 8 dereferenceable(168) %0) #0 comdat align 2 {
  %2 = alloca ptr, align 8
  store ptr %0, ptr %2, align 8
  %3 = load ptr, ptr %2, align 8
  %4 = getelementptr inbounds nuw %"struct.clang::TargetInfo::ConstraintInfo", ptr %3, i32 0, i32 0
  %5 = load i32, ptr %4, align 8
  %6 = or i32 %5, 1
  store i32 %6, ptr %4, align 8
  ret void
}

; Function Attrs: mustprogress nounwind uwtable
define linkonce_odr hidden void @_ZN5clang10TargetInfo14ConstraintInfo17setAllowsRegisterEv(ptr noundef nonnull align 8 dereferenceable(168) %0) #0 comdat align 2 {
  %2 = alloca ptr, align 8
  store ptr %0, ptr %2, align 8
  %3 = load ptr, ptr %2, align 8
  %4 = getelementptr inbounds nuw %"struct.clang::TargetInfo::ConstraintInfo", ptr %3, i32 0, i32 0
  %5 = load i32, ptr %4, align 8
  %6 = or i32 %5, 2
  store i32 %6, ptr %4, align 8
  ret void
}

; Function Attrs: mustprogress nounwind uwtable
define hidden noundef zeroext i1 @_ZNK5clang7targets17SystemZTargetInfo21validateAsmConstraintERPKcRNS_10TargetInfo14ConstraintInfoE(ptr noundef nonnull align 8 dereferenceable(536) %0, ptr noundef nonnull align 8 dereferenceable(8) %1, ptr noundef nonnull align 8 dereferenceable(168) %2) unnamed_addr #0 align 2 {
  %4 = alloca i1, align 1
  %5 = alloca ptr, align 8
  %6 = alloca ptr, align 8
  %7 = alloca ptr, align 8
  store ptr %0, ptr %5, align 8
  store ptr %1, ptr %6, align 8
  store ptr %2, ptr %7, align 8
  %8 = load ptr, ptr %6, align 8
  %9 = load ptr, ptr %8, align 8
  %10 = load i8, ptr %9, align 1
  %11 = sext i8 %10 to i32
  switch i32 %11, label %12 [
    i32 90, label %13
    i32 97, label %22
    i32 100, label %22
    i32 102, label %22
    i32 118, label %22
    i32 73, label %24
    i32 74, label %24
    i32 75, label %24
    i32 76, label %24
    i32 77, label %24
    i32 81, label %25
    i32 82, label %25
    i32 83, label %25
    i32 84, label %25
  ]

12:                                               ; preds = %3
  store i1 false, ptr %4, align 1
  br label %27

13:                                               ; preds = %3
  %14 = load ptr, ptr %6, align 8
  %15 = load ptr, ptr %14, align 8
  %16 = getelementptr inbounds i8, ptr %15, i64 1
  %17 = load i8, ptr %16, align 1
  %18 = sext i8 %17 to i32
  switch i32 %18, label %19 [
    i32 81, label %20
    i32 82, label %20
    i32 83, label %20
    i32 84, label %20
  ]

19:                                               ; preds = %13
  store i1 false, ptr %4, align 1
  br label %27

20:                                               ; preds = %13, %13, %13, %13
  br label %21

21:                                               ; preds = %20
  br label %22

22:                                               ; preds = %21, %3, %3, %3, %3
  %23 = load ptr, ptr %7, align 8
  call void @_ZN5clang10TargetInfo14ConstraintInfo17setAllowsRegisterEv(ptr noundef nonnull align 8 dereferenceable(168) %23)
  store i1 true, ptr %4, align 1
  br label %27

24:                                               ; preds = %3, %3, %3, %3, %3
  store i1 true, ptr %4, align 1
  br label %27

25:                                               ; preds = %3, %3, %3, %3
  %26 = load ptr, ptr %7, align 8
  call void @_ZN5clang10TargetInfo14ConstraintInfo15setAllowsMemoryEv(ptr noundef nonnull align 8 dereferenceable(168) %26)
  store i1 true, ptr %4, align 1
  br label %27

27:                                               ; preds = %25, %24, %22, %19, %12
  %28 = load i1, ptr %4, align 1
  ret i1 %28
}