; Function Attrs: mustprogress nofree norecurse nosync nounwind willreturn memory(read, argmem: readwrite, inaccessiblemem: none) uwtable
define hidden noundef zeroext i1 @_ZNK5clang7targets17SystemZTargetInfo21validateAsmConstraintERPKcRNS_10TargetInfo14ConstraintInfoE(ptr nocapture nonnull readnone align 8 %0, ptr nocapture noundef nonnull readonly align 8 dereferenceable(8) %1, ptr nocapture noundef nonnull align 8 dereferenceable(168) %2) unnamed_addr #1 align 2 {
  %4 = load ptr, ptr %1, align 8
  %5 = load i8, ptr %4, align 1
  switch i8 %5, label %16 [
    i8 90, label %6
    i8 97, label %9
    i8 100, label %9
    i8 102, label %9
    i8 118, label %9
    i8 73, label %12
    i8 74, label %12
    i8 75, label %12
    i8 76, label %12
    i8 77, label %12
    i8 81, label %13
    i8 82, label %13
    i8 83, label %13
    i8 84, label %13
  ]

6:                                                ; preds = %3
  %7 = getelementptr inbounds i8, ptr %4, i64 1
  %8 = load i8, ptr %7, align 1
  %.off = add i8 %8, -81
  %switch = icmp ult i8 %.off, 4
  br i1 %switch, label %9, label %16

9:                                                ; preds = %6, %3, %3, %3, %3
  %10 = load i32, ptr %2, align 8
  %11 = or i32 %10, 2
  store i32 %11, ptr %2, align 8
  br label %16

12:                                               ; preds = %3, %3, %3, %3, %3
  br label %16

13:                                               ; preds = %3, %3, %3, %3
  %14 = load i32, ptr %2, align 8
  %15 = or i32 %14, 1
  store i32 %15, ptr %2, align 8
  br label %16

16:                                               ; preds = %6, %3, %13, %12, %9
  %.0 = phi i1 [ true, %13 ], [ true, %12 ], [ true, %9 ], [ false, %3 ], [ false, %6 ]
  ret i1 %.0
}